target datalayout = "e-m:e-p270:32:32-p271:32:32-p272:64:64-i64:64-i128:128-f80:128-n8:16:32:64-S128"
target triple = "x86_64-pc-linux-gnu"

; Function Attrs: mustprogress nounwind uwtable
define void @_ZN4Cube15FactorFaceIndexEiRiS0_(i32 noundef %0, ptr noundef nonnull align 4 dereferenceable(4) %1, ptr noundef nonnull align 4 dereferenceable(4) %2) #1 align 2 {
  %4 = alloca i32, align 4
  %5 = alloca ptr, align 8
  %6 = alloca ptr, align 8
  store i32 %0, ptr %4, align 4
  store ptr %1, ptr %5, align 8
  store ptr %2, ptr %6, align 8
  %7 = load i32, ptr %4, align 4
  %8 = ashr i32 %7, 1
  %9 = load ptr, ptr %5, align 8
  store i32 %8, ptr %9, align 4
  %10 = load i32, ptr %4, align 4
  %11 = and i32 %10, 1
  %12 = load ptr, ptr %6, align 8
  store i32 %11, ptr %12, align 4
  ret void
}

; Function Attrs: mustprogress nounwind uwtable
define noundef zeroext i1 @_ZN4Cube12IsFaceCornerEii(i32 noundef %0, i32 noundef %1) #1 align 2 {
  %3 = alloca i32, align 4
  %4 = alloca i32, align 4
  %5 = alloca i32, align 4
  %6 = alloca i32, align 4
  store i32 %0, ptr %3, align 4
  store i32 %1, ptr %4, align 4
  %7 = load i32, ptr %4, align 4
  call void @_ZN4Cube15FactorFaceIndexEiRiS0_(i32 noundef %7, ptr noundef nonnull align 4 dereferenceable(4) %5, ptr noundef nonnull align 4 dereferenceable(4) %6)
  %8 = load i32, ptr %3, align 4
  %9 = load i32, ptr %5, align 4
  %10 = shl i32 1, %9
  %11 = and i32 %8, %10
  %12 = load i32, ptr %6, align 4
  %13 = load i32, ptr %5, align 4
  %14 = shl i32 %12, %13
  %15 = icmp eq i32 %11, %14
  ret i1 %15
}