; Function Attrs: mustprogress nofree norecurse nosync nounwind willreturn memory(none) uwtable
define noundef zeroext i1 @_ZN4Cube12IsFaceCornerEii(i32 noundef %0, i32 noundef %1) local_unnamed_addr #0 align 2 {
  %3 = ashr i32 %1, 1
  %4 = and i32 %1, 1
  %5 = shl nuw i32 1, %3
  %6 = and i32 %5, %0
  %7 = shl nuw i32 %4, %3
  %8 = icmp eq i32 %6, %7
  ret i1 %8
}